target datalayout = "e-m:e-p270:32:32-p271:32:32-p272:64:64-i64:64-i128:128-f80:128-n8:16:32:64-S128"
target triple = "x86_64-pc-linux-gnu"

%struct.dt_import_metadata_t = type { ptr, ptr, ptr, ptr, ptr }

@.str.7 = private unnamed_addr constant [36 x i8] c"plugins/lighttable/metadata/%s_flag\00", align 1

; Function Attrs: nounwind uwtable
define internal void @_update_layout(ptr noundef %0) #0 {
  %2 = alloca ptr, align 8
  %3 = alloca i32, align 4
  %4 = alloca ptr, align 8
  %5 = alloca i32, align 4
  %6 = alloca i32, align 4
  %7 = alloca i32, align 4
  %8 = alloca ptr, align 8
  %9 = alloca ptr, align 8
  %10 = alloca i32, align 4
  %11 = alloca i32, align 4
  store ptr %0, ptr %2, align 8, !tbaa !6
  call void @llvm.lifetime.start.p0(i64 4, ptr %3) #7
  %12 = call i32 (...) @dt_image_get_xmp_mode()
  %13 = icmp ne i32 %12, 0
  %14 = zext i1 %13 to i32
  store i32 %14, ptr %3, align 4, !tbaa !61
  call void @llvm.lifetime.start.p0(i64 8, ptr %4) #7
  %15 = load ptr, ptr %2, align 8, !tbaa !6
  %16 = getelementptr inbounds nuw %struct.dt_import_metadata_t, ptr %15, i32 0, i32 2
  %17 = load ptr, ptr %16, align 8, !tbaa !13
  %18 = call i64 @gtk_grid_get_type() #8
  %19 = call ptr @g_type_check_instance_cast(ptr noundef %17, i64 noundef %18)
  %20 = call ptr @gtk_grid_get_child_at(ptr noundef %19, i32 noundef 2, i32 noundef 0)
  store ptr %20, ptr %4, align 8, !tbaa !11
  %21 = load ptr, ptr %4, align 8, !tbaa !11
  %22 = load i32, ptr %3, align 4, !tbaa !61
  %23 = icmp ne i32 %22, 0
  %24 = xor i1 %23, true
  %25 = zext i1 %24 to i32
  call void @gtk_widget_set_visible(ptr noundef %21, i32 noundef %25)
  call void @llvm.lifetime.start.p0(i64 4, ptr %5) #7
  store i32 0, ptr %5, align 4, !tbaa !61
  br label %26

26:                                               ; preds = %83, %1
  %27 = load i32, ptr %5, align 4, !tbaa !61
  %28 = icmp ult i32 %27, 9
  br i1 %28, label %30, label %29

29:                                               ; preds = %26
  store i32 2, ptr %6, align 4
  call void @llvm.lifetime.end.p0(i64 4, ptr %5) #7
  br label %86

30:                                               ; preds = %26
  call void @llvm.lifetime.start.p0(i64 4, ptr %7) #7
  %31 = load i32, ptr %5, align 4, !tbaa !61
  %32 = call i32 @dt_metadata_get_type_by_display_order(i32 noundef %31)
  %33 = icmp eq i32 %32, 2
  %34 = zext i1 %33 to i32
  store i32 %34, ptr %7, align 4, !tbaa !61
  call void @llvm.lifetime.start.p0(i64 8, ptr %8) #7
  %35 = load i32, ptr %5, align 4, !tbaa !61
  %36 = call ptr @dt_metadata_get_name_by_display_order(i32 noundef %35)
  store ptr %36, ptr %8, align 8, !tbaa !65
  call void @llvm.lifetime.start.p0(i64 8, ptr %9) #7
  %37 = load ptr, ptr %8, align 8, !tbaa !65
  %38 = call noalias ptr (ptr, ...) @g_strdup_printf(ptr noundef @.str.7, ptr noundef %37)
  store ptr %38, ptr %9, align 8, !tbaa !65
  call void @llvm.lifetime.start.p0(i64 4, ptr %10) #7
  %39 = load i32, ptr %7, align 4, !tbaa !61
  %40 = icmp ne i32 %39, 0
  %41 = xor i1 %40, true
  %42 = zext i1 %41 to i32
  %43 = load ptr, ptr %9, align 8, !tbaa !65
  %44 = call i32 @dt_conf_get_int(ptr noundef %43)
  %45 = and i32 %44, 1
  %46 = icmp ne i32 %45, 0
  %47 = xor i1 %46, true
  %48 = zext i1 %47 to i32
  %49 = and i32 %42, %48
  store i32 %49, ptr %10, align 4, !tbaa !61
  %50 = load ptr, ptr %9, align 8, !tbaa !65
  call void @g_free(ptr noundef %50)
  call void @llvm.lifetime.start.p0(i64 4, ptr %11) #7
  store i32 0, ptr %11, align 4, !tbaa !61
  br label %51

51:                                               ; preds = %79, %30
  %52 = load i32, ptr %11, align 4, !tbaa !61
  %53 = icmp slt i32 %52, 3
  br i1 %53, label %55, label %54

54:                                               ; preds = %51
  store i32 5, ptr %6, align 4
  call void @llvm.lifetime.end.p0(i64 4, ptr %11) #7
  br label %82

55:                                               ; preds = %51
  %56 = load ptr, ptr %2, align 8, !tbaa !6
  %57 = getelementptr inbounds nuw %struct.dt_import_metadata_t, ptr %56, i32 0, i32 2
  %58 = load ptr, ptr %57, align 8, !tbaa !13
  %59 = call i64 @gtk_grid_get_type() #8
  %60 = call ptr @g_type_check_instance_cast(ptr noundef %58, i64 noundef %59)
  %61 = load i32, ptr %11, align 4, !tbaa !61
  %62 = load i32, ptr %5, align 4, !tbaa !61
  %63 = add i32 %62, 1
  %64 = call ptr @gtk_grid_get_child_at(ptr noundef %60, i32 noundef %61, i32 noundef %63)
  store ptr %64, ptr %4, align 8, !tbaa !11
  %65 = load ptr, ptr %4, align 8, !tbaa !11
  %66 = load i32, ptr %11, align 4, !tbaa !61
  %67 = icmp slt i32 %66, 2
  br i1 %67, label %68, label %70

68:                                               ; preds = %55
  %69 = load i32, ptr %10, align 4, !tbaa !61
  br label %77

70:                                               ; preds = %55
  %71 = load i32, ptr %10, align 4, !tbaa !61
  %72 = load i32, ptr %3, align 4, !tbaa !61
  %73 = icmp ne i32 %72, 0
  %74 = xor i1 %73, true
  %75 = zext i1 %74 to i32
  %76 = and i32 %71, %75
  br label %77

77:                                               ; preds = %70, %68
  %78 = phi i32 [ %69, %68 ], [ %76, %70 ]
  call void @gtk_widget_set_visible(ptr noundef %65, i32 noundef %78)
  br label %79

79:                                               ; preds = %77
  %80 = load i32, ptr %11, align 4, !tbaa !61
  %81 = add nsw i32 %80, 1
  store i32 %81, ptr %11, align 4, !tbaa !61
  br label %51

82:                                               ; preds = %54
  call void @llvm.lifetime.end.p0(i64 4, ptr %10) #7
  call void @llvm.lifetime.end.p0(i64 8, ptr %9) #7
  call void @llvm.lifetime.end.p0(i64 8, ptr %8) #7
  call void @llvm.lifetime.end.p0(i64 4, ptr %7) #7
  br label %83

83:                                               ; preds = %82
  %84 = load i32, ptr %5, align 4, !tbaa !61
  %85 = add i32 %84, 1
  store i32 %85, ptr %5, align 4, !tbaa !61
  br label %26

86:                                               ; preds = %29
  %87 = load ptr, ptr %2, align 8, !tbaa !6
  %88 = getelementptr inbounds nuw %struct.dt_import_metadata_t, ptr %87, i32 0, i32 2
  %89 = load ptr, ptr %88, align 8, !tbaa !13
  %90 = call i64 @gtk_grid_get_type() #8
  %91 = call ptr @g_type_check_instance_cast(ptr noundef %89, i64 noundef %90)
  %92 = call ptr @gtk_grid_get_child_at(ptr noundef %91, i32 noundef 2, i32 noundef 11)
  store ptr %92, ptr %4, align 8, !tbaa !11
  %93 = load ptr, ptr %4, align 8, !tbaa !11
  %94 = load i32, ptr %3, align 4, !tbaa !61
  %95 = icmp ne i32 %94, 0
  %96 = xor i1 %95, true
  %97 = zext i1 %96 to i32
  call void @gtk_widget_set_visible(ptr noundef %93, i32 noundef %97)
  call void @llvm.lifetime.end.p0(i64 8, ptr %4) #7
  call void @llvm.lifetime.end.p0(i64 4, ptr %3) #7
  ret void
}