; Function Attrs: nounwind uwtable
define internal fastcc void @_update_layout(ptr noundef readonly captures(none) %0) unnamed_addr #0 {
  %2 = tail call i32 (...) @dt_image_get_xmp_mode() #10
  %.not = icmp eq i32 %2, 0
  %3 = getelementptr inbounds nuw i8, ptr %0, i64 16
  %4 = load ptr, ptr %3, align 8, !tbaa !6
  %5 = tail call i64 @gtk_grid_get_type() #11
  %6 = tail call ptr @g_type_check_instance_cast(ptr noundef %4, i64 noundef %5) #10
  %7 = tail call ptr @gtk_grid_get_child_at(ptr noundef %6, i32 noundef 2, i32 noundef 0) #10
  %8 = zext i1 %.not to i32
  tail call void @gtk_widget_set_visible(ptr noundef %7, i32 noundef %8) #10
  br label %13

9:                                                ; preds = %22
  %10 = load ptr, ptr %3, align 8, !tbaa !6
  %11 = tail call ptr @g_type_check_instance_cast(ptr noundef %10, i64 noundef %5) #10
  %12 = tail call ptr @gtk_grid_get_child_at(ptr noundef %11, i32 noundef 2, i32 noundef 11) #10
  tail call void @gtk_widget_set_visible(ptr noundef %12, i32 noundef %8) #10
  ret void

13:                                               ; preds = %1, %22
  %.02328 = phi i32 [ 0, %1 ], [ %21, %22 ]
  %14 = tail call i32 @dt_metadata_get_type_by_display_order(i32 noundef %.02328) #10
  %.not25 = icmp eq i32 %14, 2
  %15 = tail call ptr @dt_metadata_get_name_by_display_order(i32 noundef %.02328) #10
  %16 = tail call noalias ptr (ptr, ...) @g_strdup_printf(ptr noundef nonnull @.str.7, ptr noundef %15) #10
  %17 = tail call i32 @dt_conf_get_int(ptr noundef %16) #10
  %18 = and i32 %17, 1
  %19 = xor i32 %18, 1
  %20 = select i1 %.not25, i32 0, i32 %19
  tail call void @g_free(ptr noundef %16) #10
  %21 = add nuw nsw i32 %.02328, 1
  br label %23

22:                                               ; preds = %23
  %exitcond29.not = icmp eq i32 %21, 9
  br i1 %exitcond29.not, label %9, label %13

23:                                               ; preds = %13, %23
  %.027 = phi i32 [ 0, %13 ], [ %29, %23 ]
  %24 = load ptr, ptr %3, align 8, !tbaa !6
  %25 = tail call ptr @g_type_check_instance_cast(ptr noundef %24, i64 noundef %5) #10
  %26 = tail call ptr @gtk_grid_get_child_at(ptr noundef %25, i32 noundef %.027, i32 noundef %21) #10
  %.not26 = icmp eq i32 %.027, 2
  %27 = select i1 %.not26, i32 %8, i32 1
  %28 = and i32 %27, %20
  tail call void @gtk_widget_set_visible(ptr noundef %26, i32 noundef %28) #10
  %29 = add nuw nsw i32 %.027, 1
  %exitcond.not = icmp eq i32 %29, 3
  br i1 %exitcond.not, label %22, label %23
}